target datalayout = "e-m:e-p270:32:32-p271:32:32-p272:64:64-i64:64-i128:128-f80:128-n8:16:32:64-S128"
target triple = "x86_64-pc-linux-gnu"

%struct.tn3270_conv_info_t = type { i32, i32, i8, i8, i8, i8 }

@.str.956 = private unnamed_addr constant [75 x i8] c"14-bit address, %u = row %u, column %u [assuming a %ux%u display] (0x%04x)\00", align 1
@.str.957 = private unnamed_addr constant [75 x i8] c"12-bit address, %u = row %u, column %u [assuming a %ux%u display] (0x%04x)\00", align 1
@.str.958 = private unnamed_addr constant [18 x i8] c"Reserved (0x%04x)\00", align 1

; Function Attrs: null_pointer_is_valid sspstrong uwtable
define internal i32 @dissect_buffer_address(ptr noundef %0, ptr noundef %1, i32 noundef %2, i32 noundef %3, ptr noundef %4) #0 {
  %6 = alloca ptr, align 8
  %7 = alloca ptr, align 8
  %8 = alloca i32, align 4
  %9 = alloca i32, align 4
  %10 = alloca ptr, align 8
  %11 = alloca i32, align 4
  %12 = alloca i16, align 2
  %13 = alloca i16, align 2
  %14 = alloca i16, align 2
  %15 = alloca i8, align 1
  %16 = alloca i8, align 1
  %17 = alloca i8, align 1
  %18 = alloca i8, align 1
  store ptr %0, ptr %6, align 8
  store ptr %1, ptr %7, align 8
  store i32 %2, ptr %8, align 4
  store i32 %3, ptr %9, align 4
  store ptr %4, ptr %10, align 8
  call void @llvm.lifetime.start.p0(i64 4, ptr %11) #6
  %19 = load i32, ptr %8, align 4
  store i32 %19, ptr %11, align 4
  call void @llvm.lifetime.start.p0(i64 2, ptr %12) #6
  call void @llvm.lifetime.start.p0(i64 2, ptr %13) #6
  call void @llvm.lifetime.start.p0(i64 2, ptr %14) #6
  call void @llvm.lifetime.start.p0(i64 1, ptr %15) #6
  call void @llvm.lifetime.start.p0(i64 1, ptr %16) #6
  call void @llvm.lifetime.start.p0(i64 1, ptr %17) #6
  %20 = load ptr, ptr %10, align 8
  %21 = getelementptr inbounds nuw %struct.tn3270_conv_info_t, ptr %20, i32 0, i32 4
  %22 = load i8, ptr %21, align 2
  store i8 %22, ptr %17, align 1
  call void @llvm.lifetime.start.p0(i64 1, ptr %18) #6
  %23 = load ptr, ptr %10, align 8
  %24 = getelementptr inbounds nuw %struct.tn3270_conv_info_t, ptr %23, i32 0, i32 5
  %25 = load i8, ptr %24, align 1
  store i8 %25, ptr %18, align 1
  %26 = load ptr, ptr %7, align 8
  %27 = load i32, ptr %8, align 4
  %28 = call zeroext i16 @tvb_get_ntohs(ptr noundef %26, i32 noundef %27)
  store i16 %28, ptr %12, align 2
  %29 = load i16, ptr %12, align 2
  %30 = zext i16 %29 to i32
  %31 = and i32 %30, 49152
  %32 = ashr i32 %31, 14
  %33 = trunc i32 %32 to i16
  store i16 %33, ptr %13, align 2
  %34 = load i16, ptr %12, align 2
  %35 = zext i16 %34 to i32
  %36 = and i32 %35, 16383
  %37 = trunc i32 %36 to i16
  store i16 %37, ptr %14, align 2
  %38 = load i16, ptr %13, align 2
  %39 = zext i16 %38 to i32
  switch i32 %39, label %123 [
    i32 0, label %40
    i32 1, label %68
    i32 3, label %68
    i32 2, label %113
  ]

40:                                               ; preds = %5
  %41 = load ptr, ptr %6, align 8
  %42 = load i32, ptr %9, align 4
  %43 = load ptr, ptr %7, align 8
  %44 = load i32, ptr %8, align 4
  %45 = load i16, ptr %12, align 2
  %46 = zext i16 %45 to i32
  %47 = load i16, ptr %14, align 2
  %48 = zext i16 %47 to i32
  %49 = load i16, ptr %14, align 2
  %50 = zext i16 %49 to i32
  %51 = load i8, ptr %18, align 1
  %52 = zext i8 %51 to i32
  %53 = sdiv i32 %50, %52
  %54 = add i32 %53, 1
  %55 = load i16, ptr %14, align 2
  %56 = zext i16 %55 to i32
  %57 = load i8, ptr %18, align 1
  %58 = zext i8 %57 to i32
  %59 = srem i32 %56, %58
  %60 = add i32 %59, 1
  %61 = load i8, ptr %17, align 1
  %62 = zext i8 %61 to i32
  %63 = load i8, ptr %18, align 1
  %64 = zext i8 %63 to i32
  %65 = load i16, ptr %12, align 2
  %66 = zext i16 %65 to i32
  %67 = call ptr (ptr, i32, ptr, i32, i32, i32, ptr, ...) @proto_tree_add_uint_format_value(ptr noundef %41, i32 noundef %42, ptr noundef %43, i32 noundef %44, i32 noundef 2, i32 noundef %46, ptr noundef @.str.956, i32 noundef %48, i32 noundef %54, i32 noundef %60, i32 noundef %62, i32 noundef %64, i32 noundef %66)
  br label %123

68:                                               ; preds = %5, %5
  %69 = load i16, ptr %14, align 2
  %70 = zext i16 %69 to i32
  %71 = ashr i32 %70, 8
  %72 = and i32 %71, 63
  %73 = trunc i32 %72 to i8
  store i8 %73, ptr %15, align 1
  %74 = load i16, ptr %14, align 2
  %75 = zext i16 %74 to i32
  %76 = ashr i32 %75, 0
  %77 = and i32 %76, 63
  %78 = trunc i32 %77 to i8
  store i8 %78, ptr %16, align 1
  %79 = load i8, ptr %15, align 1
  %80 = zext i8 %79 to i32
  %81 = shl i32 %80, 6
  %82 = load i8, ptr %16, align 1
  %83 = zext i8 %82 to i32
  %84 = or i32 %81, %83
  %85 = trunc i32 %84 to i16
  store i16 %85, ptr %14, align 2
  %86 = load ptr, ptr %6, align 8
  %87 = load i32, ptr %9, align 4
  %88 = load ptr, ptr %7, align 8
  %89 = load i32, ptr %8, align 4
  %90 = load i16, ptr %12, align 2
  %91 = zext i16 %90 to i32
  %92 = load i16, ptr %14, align 2
  %93 = zext i16 %92 to i32
  %94 = load i16, ptr %14, align 2
  %95 = zext i16 %94 to i32
  %96 = load i8, ptr %18, align 1
  %97 = zext i8 %96 to i32
  %98 = sdiv i32 %95, %97
  %99 = add i32 %98, 1
  %100 = load i16, ptr %14, align 2
  %101 = zext i16 %100 to i32
  %102 = load i8, ptr %18, align 1
  %103 = zext i8 %102 to i32
  %104 = srem i32 %101, %103
  %105 = add i32 %104, 1
  %106 = load i8, ptr %17, align 1
  %107 = zext i8 %106 to i32
  %108 = load i8, ptr %18, align 1
  %109 = zext i8 %108 to i32
  %110 = load i16, ptr %12, align 2
  %111 = zext i16 %110 to i32
  %112 = call ptr (ptr, i32, ptr, i32, i32, i32, ptr, ...) @proto_tree_add_uint_format_value(ptr noundef %86, i32 noundef %87, ptr noundef %88, i32 noundef %89, i32 noundef 2, i32 noundef %91, ptr noundef @.str.957, i32 noundef %93, i32 noundef %99, i32 noundef %105, i32 noundef %107, i32 noundef %109, i32 noundef %111)
  br label %123

113:                                              ; preds = %5
  %114 = load ptr, ptr %6, align 8
  %115 = load i32, ptr %9, align 4
  %116 = load ptr, ptr %7, align 8
  %117 = load i32, ptr %8, align 4
  %118 = load i16, ptr %12, align 2
  %119 = zext i16 %118 to i32
  %120 = load i16, ptr %12, align 2
  %121 = zext i16 %120 to i32
  %122 = call ptr (ptr, i32, ptr, i32, i32, i32, ptr, ...) @proto_tree_add_uint_format_value(ptr noundef %114, i32 noundef %115, ptr noundef %116, i32 noundef %117, i32 noundef 2, i32 noundef %119, ptr noundef @.str.958, i32 noundef %121)
  br label %123

123:                                              ; preds = %5, %113, %68, %40
  %124 = load i32, ptr %8, align 4
  %125 = add i32 %124, 2
  store i32 %125, ptr %8, align 4
  %126 = load i32, ptr %8, align 4
  %127 = load i32, ptr %11, align 4
  %128 = sub i32 %126, %127
  call void @llvm.lifetime.end.p0(i64 1, ptr %18) #6
  call void @llvm.lifetime.end.p0(i64 1, ptr %17) #6
  call void @llvm.lifetime.end.p0(i64 1, ptr %16) #6
  call void @llvm.lifetime.end.p0(i64 1, ptr %15) #6
  call void @llvm.lifetime.end.p0(i64 2, ptr %14) #6
  call void @llvm.lifetime.end.p0(i64 2, ptr %13) #6
  call void @llvm.lifetime.end.p0(i64 2, ptr %12) #6
  call void @llvm.lifetime.end.p0(i64 4, ptr %11) #6
  ret i32 %128
}