; Function Attrs: null_pointer_is_valid sspstrong uwtable
define internal fastcc void @dissect_buffer_address(ptr noundef %0, ptr noundef %1, i32 noundef %2, i32 noundef %3, i8 %.10.val, i8 %.11.val) unnamed_addr #0 {
  %5 = tail call zeroext i16 @tvb_get_ntohs(ptr noundef %1, i32 noundef %2)
  %6 = zext i16 %5 to i32
  %7 = lshr i16 %5, 14
  switch i16 %7, label %default.unreachable13 [
    i16 0, label %8
    i16 1, label %18
    i16 3, label %18
    i16 2, label %31
  ]

8:                                                ; preds = %4
  %9 = and i16 %5, 16383
  %10 = zext nneg i16 %9 to i32
  %11 = zext i8 %.11.val to i32
  %.rhs.trunc = zext i8 %.11.val to i16
  %12 = udiv i16 %9, %.rhs.trunc
  %narrow11 = add nuw nsw i16 %12, 1
  %13 = zext nneg i16 %narrow11 to i32
  %14 = urem i16 %9, %.rhs.trunc
  %narrow12 = add nuw nsw i16 %14, 1
  %15 = zext nneg i16 %narrow12 to i32
  %16 = zext i8 %.10.val to i32
  %17 = tail call ptr (ptr, i32, ptr, i32, i32, i32, ptr, ...) @proto_tree_add_uint_format_value(ptr noundef %0, i32 noundef %3, ptr noundef %1, i32 noundef %2, i32 noundef 2, i32 noundef %6, ptr noundef nonnull @.str.956, i32 noundef %10, i32 noundef %13, i32 noundef %15, i32 noundef %16, i32 noundef %11, i32 noundef %6)
  br label %33

18:                                               ; preds = %4, %4
  %19 = and i16 %5, 63
  %20 = lshr i16 %5, 2
  %21 = and i16 %20, 4032
  %22 = or disjoint i16 %21, %19
  %23 = zext nneg i16 %22 to i32
  %24 = zext i8 %.11.val to i32
  %.rhs.trunc5 = zext i8 %.11.val to i16
  %25 = udiv i16 %22, %.rhs.trunc5
  %narrow = add nuw nsw i16 %25, 1
  %26 = zext nneg i16 %narrow to i32
  %27 = urem i16 %22, %.rhs.trunc5
  %narrow10 = add nuw nsw i16 %27, 1
  %28 = zext nneg i16 %narrow10 to i32
  %29 = zext i8 %.10.val to i32
  %30 = tail call ptr (ptr, i32, ptr, i32, i32, i32, ptr, ...) @proto_tree_add_uint_format_value(ptr noundef %0, i32 noundef %3, ptr noundef %1, i32 noundef %2, i32 noundef 2, i32 noundef %6, ptr noundef nonnull @.str.957, i32 noundef %23, i32 noundef %26, i32 noundef %28, i32 noundef %29, i32 noundef %24, i32 noundef %6)
  br label %33

31:                                               ; preds = %4
  %32 = tail call ptr (ptr, i32, ptr, i32, i32, i32, ptr, ...) @proto_tree_add_uint_format_value(ptr noundef %0, i32 noundef %3, ptr noundef %1, i32 noundef %2, i32 noundef 2, i32 noundef %6, ptr noundef nonnull @.str.958, i32 noundef %6)
  br label %33

default.unreachable13:                            ; preds = %4
  unreachable

33:                                               ; preds = %31, %18, %8
  ret void
}